; Function Attrs: nounwind uwtable
define i32 @ossl_param_build_set_octet_string(ptr noundef %0, ptr noundef %1, ptr noundef %2, ptr noundef %3, i64 noundef %4) local_unnamed_addr #0 {
  %.not = icmp eq ptr %0, null
  br i1 %.not, label %8, label %6

6:                                                ; preds = %5
  %7 = tail call i32 @OSSL_PARAM_BLD_push_octet_string(ptr noundef nonnull %0, ptr noundef %2, ptr noundef %3, i64 noundef %4) #2
  br label %12

8:                                                ; preds = %5
  %9 = tail call ptr @OSSL_PARAM_locate(ptr noundef %1, ptr noundef %2) #2
  %.not13 = icmp eq ptr %9, null
  br i1 %.not13, label %12, label %10

10:                                               ; preds = %8
  %11 = tail call i32 @OSSL_PARAM_set_octet_string(ptr noundef nonnull %9, ptr noundef %3, i64 noundef %4) #2
  br label %12

12:                                               ; preds = %8, %10, %6
  %.0 = phi i32 [ %7, %6 ], [ %11, %10 ], [ 1, %8 ]
  ret i32 %.0
}